target datalayout = "e-m:e-p270:32:32-p271:32:32-p272:64:64-i64:64-i128:128-f80:128-n8:16:32:64-S128"
target triple = "x86_64-pc-linux-gnu"

%struct.compiler_common = type { ptr, ptr, ptr, ptr, ptr, ptr, ptr, ptr, i32, i32, i32, i32, i32, i32, i32, i32, i32, i32, i32, ptr, i32, i32, i32, ptr, ptr, i64, i32, i32, i32, i32, i32, i32, i32, i32, i32, i32, i32, i32, i32, i32, i32, i32, i32, i64, ptr, i64, i64, ptr, ptr, ptr, ptr, ptr, ptr, ptr, ptr, ptr, ptr, ptr, ptr, ptr, ptr, ptr, ptr, ptr, ptr, ptr, ptr, ptr, ptr, ptr, ptr, ptr, ptr, i32, i32, i32, i32, i32, i32, ptr, ptr, ptr, ptr, ptr, ptr, ptr, ptr, ptr }

@_pcre2_OP_lengths_8 = external constant [0 x i8], align 1
@_pcre2_utf8_table4 = external constant [0 x i8], align 1

; Function Attrs: nounwind uwtable
define internal ptr @next_opcode(ptr noundef %0, ptr noundef %1) #0 {
  %3 = alloca ptr, align 8
  %4 = alloca ptr, align 8
  %5 = alloca ptr, align 8
  store ptr %0, ptr %4, align 8
  store ptr %1, ptr %5, align 8
  %6 = load ptr, ptr %5, align 8
  %7 = load i8, ptr %6, align 1
  %8 = zext i8 %7 to i32
  switch i32 %8, label %112 [
    i32 1, label %9
    i32 2, label %9
    i32 3, label %9
    i32 4, label %9
    i32 5, label %9
    i32 6, label %9
    i32 7, label %9
    i32 8, label %9
    i32 9, label %9
    i32 10, label %9
    i32 11, label %9
    i32 12, label %9
    i32 13, label %9
    i32 15, label %9
    i32 16, label %9
    i32 17, label %9
    i32 18, label %9
    i32 19, label %9
    i32 20, label %9
    i32 21, label %9
    i32 22, label %9
    i32 23, label %9
    i32 24, label %9
    i32 27, label %9
    i32 28, label %9
    i32 25, label %9
    i32 26, label %9
    i32 98, label %9
    i32 99, label %9
    i32 100, label %9
    i32 101, label %9
    i32 102, label %9
    i32 103, label %9
    i32 104, label %9
    i32 105, label %9
    i32 106, label %9
    i32 107, label %9
    i32 108, label %9
    i32 109, label %9
    i32 110, label %9
    i32 111, label %9
    i32 113, label %9
    i32 114, label %9
    i32 115, label %9
    i32 116, label %9
    i32 117, label %9
    i32 118, label %9
    i32 120, label %9
    i32 121, label %9
    i32 122, label %9
    i32 123, label %9
    i32 124, label %9
    i32 125, label %9
    i32 126, label %9
    i32 127, label %9
    i32 128, label %9
    i32 129, label %9
    i32 130, label %9
    i32 131, label %9
    i32 132, label %9
    i32 133, label %9
    i32 134, label %9
    i32 135, label %9
    i32 136, label %9
    i32 137, label %9
    i32 138, label %9
    i32 139, label %9
    i32 140, label %9
    i32 141, label %9
    i32 142, label %9
    i32 143, label %9
    i32 144, label %9
    i32 145, label %9
    i32 146, label %9
    i32 147, label %9
    i32 148, label %9
    i32 149, label %9
    i32 150, label %9
    i32 151, label %9
    i32 152, label %9
    i32 153, label %9
    i32 155, label %9
    i32 157, label %9
    i32 159, label %9
    i32 161, label %9
    i32 163, label %9
    i32 164, label %9
    i32 165, label %9
    i32 166, label %9
    i32 167, label %9
    i32 169, label %9
    i32 170, label %9
    i32 29, label %19
    i32 30, label %19
    i32 31, label %19
    i32 32, label %19
    i32 33, label %19
    i32 34, label %19
    i32 35, label %19
    i32 36, label %19
    i32 37, label %19
    i32 38, label %19
    i32 39, label %19
    i32 40, label %19
    i32 41, label %19
    i32 42, label %19
    i32 43, label %19
    i32 44, label %19
    i32 45, label %19
    i32 46, label %19
    i32 47, label %19
    i32 48, label %19
    i32 49, label %19
    i32 50, label %19
    i32 51, label %19
    i32 52, label %19
    i32 53, label %19
    i32 54, label %19
    i32 55, label %19
    i32 56, label %19
    i32 57, label %19
    i32 58, label %19
    i32 59, label %19
    i32 60, label %19
    i32 61, label %19
    i32 62, label %19
    i32 63, label %19
    i32 64, label %19
    i32 65, label %19
    i32 66, label %19
    i32 67, label %19
    i32 68, label %19
    i32 69, label %19
    i32 70, label %19
    i32 71, label %19
    i32 72, label %19
    i32 73, label %19
    i32 74, label %19
    i32 75, label %19
    i32 76, label %19
    i32 77, label %19
    i32 78, label %19
    i32 79, label %19
    i32 80, label %19
    i32 81, label %19
    i32 82, label %19
    i32 83, label %19
    i32 84, label %19
    i32 85, label %54
    i32 86, label %54
    i32 87, label %54
    i32 88, label %54
    i32 89, label %54
    i32 90, label %54
    i32 91, label %54
    i32 92, label %54
    i32 93, label %54
    i32 94, label %54
    i32 95, label %54
    i32 96, label %54
    i32 97, label %54
    i32 14, label %65
    i32 119, label %74
    i32 112, label %88
    i32 154, label %102
    i32 162, label %102
    i32 156, label %102
    i32 158, label %102
    i32 160, label %102
  ]

9:                                                ; preds = %2, %2, %2, %2, %2, %2, %2, %2, %2, %2, %2, %2, %2, %2, %2, %2, %2, %2, %2, %2, %2, %2, %2, %2, %2, %2, %2, %2, %2, %2, %2, %2, %2, %2, %2, %2, %2, %2, %2, %2, %2, %2, %2, %2, %2, %2, %2, %2, %2, %2, %2, %2, %2, %2, %2, %2, %2, %2, %2, %2, %2, %2, %2, %2, %2, %2, %2, %2, %2, %2, %2, %2, %2, %2, %2, %2, %2, %2, %2, %2, %2, %2, %2, %2, %2, %2, %2, %2, %2, %2, %2, %2
  %10 = load ptr, ptr %5, align 8
  %11 = load ptr, ptr %5, align 8
  %12 = load i8, ptr %11, align 1
  %13 = zext i8 %12 to i64
  %14 = getelementptr inbounds [0 x i8], ptr @_pcre2_OP_lengths_8, i64 0, i64 %13
  %15 = load i8, ptr %14, align 1
  %16 = zext i8 %15 to i32
  %17 = sext i32 %16 to i64
  %18 = getelementptr inbounds i8, ptr %10, i64 %17
  store ptr %18, ptr %3, align 8
  br label %115

19:                                               ; preds = %2, %2, %2, %2, %2, %2, %2, %2, %2, %2, %2, %2, %2, %2, %2, %2, %2, %2, %2, %2, %2, %2, %2, %2, %2, %2, %2, %2, %2, %2, %2, %2, %2, %2, %2, %2, %2, %2, %2, %2, %2, %2, %2, %2, %2, %2, %2, %2, %2, %2, %2, %2, %2, %2, %2, %2
  %20 = load ptr, ptr %5, align 8
  %21 = load i8, ptr %20, align 1
  %22 = zext i8 %21 to i64
  %23 = getelementptr inbounds [0 x i8], ptr @_pcre2_OP_lengths_8, i64 0, i64 %22
  %24 = load i8, ptr %23, align 1
  %25 = zext i8 %24 to i32
  %26 = load ptr, ptr %5, align 8
  %27 = sext i32 %25 to i64
  %28 = getelementptr inbounds i8, ptr %26, i64 %27
  store ptr %28, ptr %5, align 8
  %29 = load ptr, ptr %4, align 8
  %30 = getelementptr inbounds %struct.compiler_common, ptr %29, i32 0, i32 75
  %31 = load i32, ptr %30, align 8
  %32 = icmp ne i32 %31, 0
  br i1 %32, label %33, label %52

33:                                               ; preds = %19
  %34 = load ptr, ptr %5, align 8
  %35 = getelementptr inbounds i8, ptr %34, i64 -1
  %36 = load i8, ptr %35, align 1
  %37 = zext i8 %36 to i32
  %38 = icmp sge i32 %37, 192
  br i1 %38, label %39, label %52

39:                                               ; preds = %33
  %40 = load ptr, ptr %5, align 8
  %41 = getelementptr inbounds i8, ptr %40, i64 -1
  %42 = load i8, ptr %41, align 1
  %43 = zext i8 %42 to i32
  %44 = and i32 %43, 63
  %45 = zext i32 %44 to i64
  %46 = getelementptr inbounds [0 x i8], ptr @_pcre2_utf8_table4, i64 0, i64 %45
  %47 = load i8, ptr %46, align 1
  %48 = zext i8 %47 to i32
  %49 = load ptr, ptr %5, align 8
  %50 = sext i32 %48 to i64
  %51 = getelementptr inbounds i8, ptr %49, i64 %50
  store ptr %51, ptr %5, align 8
  br label %52

52:                                               ; preds = %39, %33, %19
  %53 = load ptr, ptr %5, align 8
  store ptr %53, ptr %3, align 8
  br label %115

54:                                               ; preds = %2, %2, %2, %2, %2, %2, %2, %2, %2, %2, %2, %2, %2
  %55 = load ptr, ptr %5, align 8
  %56 = load ptr, ptr %5, align 8
  %57 = load i8, ptr %56, align 1
  %58 = zext i8 %57 to i64
  %59 = getelementptr inbounds [0 x i8], ptr @_pcre2_OP_lengths_8, i64 0, i64 %58
  %60 = load i8, ptr %59, align 1
  %61 = zext i8 %60 to i32
  %62 = sext i32 %61 to i64
  %63 = getelementptr inbounds i8, ptr %55, i64 %62
  %64 = getelementptr inbounds i8, ptr %63, i64 -1
  store ptr %64, ptr %3, align 8
  br label %115

65:                                               ; preds = %2
  %66 = load ptr, ptr %4, align 8
  %67 = getelementptr inbounds %struct.compiler_common, ptr %66, i32 0, i32 75
  %68 = load i32, ptr %67, align 8
  %69 = icmp ne i32 %68, 0
  br i1 %69, label %70, label %71

70:                                               ; preds = %65
  store ptr null, ptr %3, align 8
  br label %115

71:                                               ; preds = %65
  %72 = load ptr, ptr %5, align 8
  %73 = getelementptr inbounds i8, ptr %72, i64 1
  store ptr %73, ptr %3, align 8
  br label %115

74:                                               ; preds = %2
  %75 = load ptr, ptr %5, align 8
  %76 = load ptr, ptr %5, align 8
  %77 = getelementptr inbounds i8, ptr %76, i64 5
  %78 = load i8, ptr %77, align 1
  %79 = zext i8 %78 to i32
  %80 = shl i32 %79, 8
  %81 = load ptr, ptr %5, align 8
  %82 = getelementptr inbounds i8, ptr %81, i64 6
  %83 = load i8, ptr %82, align 1
  %84 = zext i8 %83 to i32
  %85 = or i32 %80, %84
  %86 = zext i32 %85 to i64
  %87 = getelementptr inbounds i8, ptr %75, i64 %86
  store ptr %87, ptr %3, align 8
  br label %115

88:                                               ; preds = %2
  %89 = load ptr, ptr %5, align 8
  %90 = load ptr, ptr %5, align 8
  %91 = getelementptr inbounds i8, ptr %90, i64 1
  %92 = load i8, ptr %91, align 1
  %93 = zext i8 %92 to i32
  %94 = shl i32 %93, 8
  %95 = load ptr, ptr %5, align 8
  %96 = getelementptr inbounds i8, ptr %95, i64 2
  %97 = load i8, ptr %96, align 1
  %98 = zext i8 %97 to i32
  %99 = or i32 %94, %98
  %100 = zext i32 %99 to i64
  %101 = getelementptr inbounds i8, ptr %89, i64 %100
  store ptr %101, ptr %3, align 8
  br label %115

102:                                              ; preds = %2, %2, %2, %2, %2
  %103 = load ptr, ptr %5, align 8
  %104 = getelementptr inbounds i8, ptr %103, i64 1
  %105 = getelementptr inbounds i8, ptr %104, i64 2
  %106 = load ptr, ptr %5, align 8
  %107 = getelementptr inbounds i8, ptr %106, i64 1
  %108 = load i8, ptr %107, align 1
  %109 = zext i8 %108 to i32
  %110 = sext i32 %109 to i64
  %111 = getelementptr inbounds i8, ptr %105, i64 %110
  store ptr %111, ptr %3, align 8
  br label %115

112:                                              ; preds = %2
  br label %113

113:                                              ; preds = %112
  br label %114

114:                                              ; preds = %113
  store ptr null, ptr %3, align 8
  br label %115

115:                                              ; preds = %114, %102, %88, %74, %71, %70, %54, %52, %9
  %116 = load ptr, ptr %3, align 8
  ret ptr %116
}