; Function Attrs: mustprogress nofree norecurse nosync nounwind willreturn memory(argmem: read) uwtable
define internal fastcc ptr @next_opcode(ptr nocapture noundef readonly %0, ptr noundef readonly %1) unnamed_addr #4 {
  %3 = load i8, ptr %1, align 1
  switch i8 %3, label %66 [
    i8 1, label %4
    i8 2, label %4
    i8 3, label %4
    i8 4, label %4
    i8 5, label %4
    i8 6, label %4
    i8 7, label %4
    i8 8, label %4
    i8 9, label %4
    i8 10, label %4
    i8 11, label %4
    i8 12, label %4
    i8 13, label %4
    i8 15, label %4
    i8 16, label %4
    i8 17, label %4
    i8 18, label %4
    i8 19, label %4
    i8 20, label %4
    i8 21, label %4
    i8 22, label %4
    i8 23, label %4
    i8 24, label %4
    i8 27, label %4
    i8 28, label %4
    i8 25, label %4
    i8 26, label %4
    i8 98, label %4
    i8 99, label %4
    i8 100, label %4
    i8 101, label %4
    i8 102, label %4
    i8 103, label %4
    i8 104, label %4
    i8 105, label %4
    i8 106, label %4
    i8 107, label %4
    i8 108, label %4
    i8 109, label %4
    i8 110, label %4
    i8 111, label %4
    i8 113, label %4
    i8 114, label %4
    i8 115, label %4
    i8 116, label %4
    i8 117, label %4
    i8 118, label %4
    i8 120, label %4
    i8 121, label %4
    i8 122, label %4
    i8 123, label %4
    i8 124, label %4
    i8 125, label %4
    i8 126, label %4
    i8 127, label %4
    i8 -128, label %4
    i8 -127, label %4
    i8 -126, label %4
    i8 -125, label %4
    i8 -124, label %4
    i8 -123, label %4
    i8 -122, label %4
    i8 -121, label %4
    i8 -120, label %4
    i8 -119, label %4
    i8 -118, label %4
    i8 -117, label %4
    i8 -116, label %4
    i8 -115, label %4
    i8 -114, label %4
    i8 -113, label %4
    i8 -112, label %4
    i8 -111, label %4
    i8 -110, label %4
    i8 -109, label %4
    i8 -108, label %4
    i8 -107, label %4
    i8 -106, label %4
    i8 -105, label %4
    i8 -104, label %4
    i8 -103, label %4
    i8 -101, label %4
    i8 -99, label %4
    i8 -97, label %4
    i8 -95, label %4
    i8 -93, label %4
    i8 -92, label %4
    i8 -91, label %4
    i8 -90, label %4
    i8 -89, label %4
    i8 -87, label %4
    i8 -86, label %4
    i8 29, label %10
    i8 30, label %10
    i8 31, label %10
    i8 32, label %10
    i8 33, label %10
    i8 34, label %10
    i8 35, label %10
    i8 36, label %10
    i8 37, label %10
    i8 38, label %10
    i8 39, label %10
    i8 40, label %10
    i8 41, label %10
    i8 42, label %10
    i8 43, label %10
    i8 44, label %10
    i8 45, label %10
    i8 46, label %10
    i8 47, label %10
    i8 48, label %10
    i8 49, label %10
    i8 50, label %10
    i8 51, label %10
    i8 52, label %10
    i8 53, label %10
    i8 54, label %10
    i8 55, label %10
    i8 56, label %10
    i8 57, label %10
    i8 58, label %10
    i8 59, label %10
    i8 60, label %10
    i8 61, label %10
    i8 62, label %10
    i8 63, label %10
    i8 64, label %10
    i8 65, label %10
    i8 66, label %10
    i8 67, label %10
    i8 68, label %10
    i8 69, label %10
    i8 70, label %10
    i8 71, label %10
    i8 72, label %10
    i8 73, label %10
    i8 74, label %10
    i8 75, label %10
    i8 76, label %10
    i8 77, label %10
    i8 78, label %10
    i8 79, label %10
    i8 80, label %10
    i8 81, label %10
    i8 82, label %10
    i8 83, label %10
    i8 84, label %10
    i8 85, label %29
    i8 86, label %29
    i8 87, label %29
    i8 88, label %29
    i8 89, label %29
    i8 90, label %29
    i8 91, label %29
    i8 92, label %29
    i8 93, label %29
    i8 94, label %29
    i8 95, label %29
    i8 96, label %29
    i8 97, label %29
    i8 14, label %36
    i8 119, label %40
    i8 112, label %50
    i8 -102, label %60
    i8 -94, label %60
    i8 -100, label %60
    i8 -98, label %60
    i8 -96, label %60
  ]

4:                                                ; preds = %2, %2, %2, %2, %2, %2, %2, %2, %2, %2, %2, %2, %2, %2, %2, %2, %2, %2, %2, %2, %2, %2, %2, %2, %2, %2, %2, %2, %2, %2, %2, %2, %2, %2, %2, %2, %2, %2, %2, %2, %2, %2, %2, %2, %2, %2, %2, %2, %2, %2, %2, %2, %2, %2, %2, %2, %2, %2, %2, %2, %2, %2, %2, %2, %2, %2, %2, %2, %2, %2, %2, %2, %2, %2, %2, %2, %2, %2, %2, %2, %2, %2, %2, %2, %2, %2, %2, %2, %2, %2, %2, %2
  %5 = zext i8 %3 to i64
  %6 = getelementptr inbounds [0 x i8], ptr @_pcre2_OP_lengths_8, i64 0, i64 %5
  %7 = load i8, ptr %6, align 1
  %8 = zext i8 %7 to i64
  %9 = getelementptr inbounds i8, ptr %1, i64 %8
  br label %66

10:                                               ; preds = %2, %2, %2, %2, %2, %2, %2, %2, %2, %2, %2, %2, %2, %2, %2, %2, %2, %2, %2, %2, %2, %2, %2, %2, %2, %2, %2, %2, %2, %2, %2, %2, %2, %2, %2, %2, %2, %2, %2, %2, %2, %2, %2, %2, %2, %2, %2, %2, %2, %2, %2, %2, %2, %2, %2, %2
  %11 = zext nneg i8 %3 to i64
  %12 = getelementptr inbounds [0 x i8], ptr @_pcre2_OP_lengths_8, i64 0, i64 %11
  %13 = load i8, ptr %12, align 1
  %14 = zext i8 %13 to i64
  %15 = getelementptr inbounds i8, ptr %1, i64 %14
  %16 = getelementptr inbounds i8, ptr %0, i64 480
  %17 = load i32, ptr %16, align 8
  %.not25 = icmp eq i32 %17, 0
  br i1 %.not25, label %66, label %18

18:                                               ; preds = %10
  %19 = getelementptr inbounds i8, ptr %15, i64 -1
  %20 = load i8, ptr %19, align 1
  %21 = icmp ugt i8 %20, -65
  br i1 %21, label %22, label %66

22:                                               ; preds = %18
  %23 = and i8 %20, 63
  %24 = zext nneg i8 %23 to i64
  %25 = getelementptr inbounds [0 x i8], ptr @_pcre2_utf8_table4, i64 0, i64 %24
  %26 = load i8, ptr %25, align 1
  %27 = zext i8 %26 to i64
  %28 = getelementptr inbounds i8, ptr %15, i64 %27
  br label %66

29:                                               ; preds = %2, %2, %2, %2, %2, %2, %2, %2, %2, %2, %2, %2, %2
  %30 = zext nneg i8 %3 to i64
  %31 = getelementptr inbounds [0 x i8], ptr @_pcre2_OP_lengths_8, i64 0, i64 %30
  %32 = load i8, ptr %31, align 1
  %33 = zext i8 %32 to i64
  %34 = getelementptr inbounds i8, ptr %1, i64 %33
  %35 = getelementptr inbounds i8, ptr %34, i64 -1
  br label %66

36:                                               ; preds = %2
  %37 = getelementptr inbounds i8, ptr %0, i64 480
  %38 = load i32, ptr %37, align 8
  %.not = icmp eq i32 %38, 0
  %39 = getelementptr inbounds i8, ptr %1, i64 1
  %spec.select = select i1 %.not, ptr %39, ptr null
  br label %66

40:                                               ; preds = %2
  %41 = getelementptr inbounds i8, ptr %1, i64 5
  %42 = load i8, ptr %41, align 1
  %43 = zext i8 %42 to i64
  %44 = shl nuw nsw i64 %43, 8
  %45 = getelementptr inbounds i8, ptr %1, i64 6
  %46 = load i8, ptr %45, align 1
  %47 = zext i8 %46 to i64
  %48 = or disjoint i64 %44, %47
  %49 = getelementptr inbounds i8, ptr %1, i64 %48
  br label %66

50:                                               ; preds = %2
  %51 = getelementptr inbounds i8, ptr %1, i64 1
  %52 = load i8, ptr %51, align 1
  %53 = zext i8 %52 to i64
  %54 = shl nuw nsw i64 %53, 8
  %55 = getelementptr inbounds i8, ptr %1, i64 2
  %56 = load i8, ptr %55, align 1
  %57 = zext i8 %56 to i64
  %58 = or disjoint i64 %54, %57
  %59 = getelementptr inbounds i8, ptr %1, i64 %58
  br label %66

60:                                               ; preds = %2, %2, %2, %2, %2
  %61 = getelementptr inbounds i8, ptr %1, i64 1
  %62 = getelementptr inbounds i8, ptr %1, i64 3
  %63 = load i8, ptr %61, align 1
  %64 = zext i8 %63 to i64
  %65 = getelementptr inbounds i8, ptr %62, i64 %64
  br label %66

66:                                               ; preds = %36, %2, %10, %18, %22, %60, %50, %40, %29, %4
  %.023 = phi ptr [ %65, %60 ], [ %59, %50 ], [ %49, %40 ], [ %35, %29 ], [ %9, %4 ], [ %28, %22 ], [ %15, %18 ], [ %15, %10 ], [ null, %2 ], [ %spec.select, %36 ]
  ret ptr %.023
}